; Function Attrs: mustprogress uwtable
define noundef zeroext i1 @_ZN10MainWindow12hasSelectionEv(ptr nocapture noundef nonnull readonly align 8 dereferenceable(272) %0) local_unnamed_addr #2 align 2 {
  %2 = getelementptr inbounds i8, ptr %0, i64 224
  %3 = load ptr, ptr %2, align 8
  %.not = icmp eq ptr %3, null
  br i1 %.not, label %6, label %4

4:                                                ; preds = %1
  %5 = tail call noundef zeroext i1 @_ZN10PacketList17multiSelectActiveEv(ptr noundef nonnull align 8 dereferenceable(464) %3)
  br label %6

6:                                                ; preds = %1, %4
  %.0 = phi i1 [ %5, %4 ], [ false, %1 ]
  ret i1 %.0
}